target datalayout = "e-m:e-p270:32:32-p271:32:32-p272:64:64-i64:64-i128:128-f80:128-n8:16:32:64-S128"
target triple = "x86_64-pc-linux-gnu"

%struct.archive_read_filter = type { i64, ptr, ptr, ptr, ptr, ptr, ptr, i32, i32, i32, ptr, i64, ptr, i64, ptr, i64, ptr, i64, i8, i8, i8 }
%struct.private_data = type { ptr, i64, i64, i32, i32, i64, i64, ptr, i32, i32, i32, i32, i32, i32, i32, i32, i32, [65536 x i8], [65536 x i16], ptr, [65300 x i8] }

; Function Attrs: nounwind uwtable
define internal i32 @compress_filter_close(ptr noundef %0) #0 {
  %2 = alloca ptr, align 8
  %3 = alloca ptr, align 8
  store ptr %0, ptr %2, align 8
  %4 = load ptr, ptr %2, align 8
  %5 = getelementptr inbounds %struct.archive_read_filter, ptr %4, i32 0, i32 5
  %6 = load ptr, ptr %5, align 8
  store ptr %6, ptr %3, align 8
  %7 = load ptr, ptr %3, align 8
  %8 = getelementptr inbounds %struct.private_data, ptr %7, i32 0, i32 7
  %9 = load ptr, ptr %8, align 8
  call void @free(ptr noundef %9) #7
  %10 = load ptr, ptr %3, align 8
  call void @free(ptr noundef %10) #7
  ret i32 0
}