; Function Attrs: mustprogress nounwind willreturn uwtable
define internal noundef i32 @compress_filter_close(ptr noundef readonly captures(none) %0) #5 {
  %2 = getelementptr inbounds nuw i8, ptr %0, i64 40
  %3 = load ptr, ptr %2, align 8
  %4 = getelementptr inbounds nuw i8, ptr %3, i64 48
  %5 = load ptr, ptr %4, align 8
  tail call void @free(ptr noundef %5) #6
  tail call void @free(ptr noundef %3) #6
  ret i32 0
}